target datalayout = "e-m:e-p270:32:32-p271:32:32-p272:64:64-i64:64-i128:128-f80:128-n8:16:32:64-S128"
target triple = "x86_64-pc-linux-gnu"

%struct.GCRef = type { i64 }
%struct.GCcdata = type { %struct.GCRef, i8, i8, i16 }
%struct.CType = type { i32, i32, i16, i16, %struct.GCRef }
%struct.CTState = type { ptr, i32, i32, ptr, ptr, ptr, %struct.CCallback, [128 x i16] }
%struct.CCallback = type { [8 x %union.FPRCBArg], [8 x i64], ptr, ptr, ptr, i32, i32, i32 }
%union.FPRCBArg = type { double }

; Function Attrs: alwaysinline nounwind uwtable
define internal i32 @ctype_check(ptr noundef %0, i32 noundef %1) #2 {
  %3 = alloca ptr, align 8
  %4 = alloca i32, align 4
  store ptr %0, ptr %3, align 8, !tbaa !4
  store i32 %1, ptr %4, align 4, !tbaa !12
  %5 = load i32, ptr %4, align 4, !tbaa !12
  ret i32 %5
}

; Function Attrs: alwaysinline nounwind uwtable
define internal ptr @ctype_get(ptr noundef %0, i32 noundef %1) #2 {
  %3 = alloca ptr, align 8
  %4 = alloca i32, align 4
  store ptr %0, ptr %3, align 8, !tbaa !4
  store i32 %1, ptr %4, align 4, !tbaa !12
  %5 = load ptr, ptr %3, align 8, !tbaa !4
  %6 = getelementptr inbounds nuw %struct.CTState, ptr %5, i32 0, i32 0
  %7 = load ptr, ptr %6, align 8, !tbaa !22
  %8 = load ptr, ptr %3, align 8, !tbaa !4
  %9 = load i32, ptr %4, align 4, !tbaa !12
  %10 = call i32 @ctype_check(ptr noundef %8, i32 noundef %9)
  %11 = zext i32 %10 to i64
  %12 = getelementptr inbounds nuw %struct.CType, ptr %7, i64 %11
  ret ptr %12
}

; Function Attrs: nounwind uwtable
define hidden i32 @lj_ccall_ctid_vararg(ptr noundef %0, ptr noundef %1) #0 {
  %3 = alloca i32, align 4
  %4 = alloca ptr, align 8
  %5 = alloca ptr, align 8
  %6 = alloca i32, align 4
  %7 = alloca ptr, align 8
  %8 = alloca i32, align 4
  store ptr %0, ptr %4, align 8, !tbaa !4
  store ptr %1, ptr %5, align 8, !tbaa !9
  %9 = load ptr, ptr %5, align 8, !tbaa !9
  %10 = load i64, ptr %9, align 8, !tbaa !11
  %11 = ashr i64 %10, 47
  %12 = trunc i64 %11 to i32
  %13 = icmp ule i32 %12, -14
  br i1 %13, label %14, label %15

14:                                               ; preds = %2
  store i32 14, ptr %3, align 4
  br label %102

15:                                               ; preds = %2
  %16 = load ptr, ptr %5, align 8, !tbaa !9
  %17 = load i64, ptr %16, align 8, !tbaa !11
  %18 = ashr i64 %17, 47
  %19 = trunc i64 %18 to i32
  %20 = icmp eq i32 %19, -11
  br i1 %20, label %21, label %81

21:                                               ; preds = %15
  call void @llvm.lifetime.start.p0(i64 4, ptr %6) #8
  %22 = load ptr, ptr %5, align 8, !tbaa !9
  %23 = getelementptr inbounds nuw %struct.GCRef, ptr %22, i32 0, i32 0
  %24 = load i64, ptr %23, align 8, !tbaa !11
  %25 = and i64 %24, 140737488355327
  %26 = inttoptr i64 %25 to ptr
  %27 = getelementptr inbounds nuw %struct.GCcdata, ptr %26, i32 0, i32 3
  %28 = load i16, ptr %27, align 2, !tbaa !11
  %29 = zext i16 %28 to i32
  store i32 %29, ptr %6, align 4, !tbaa !12
  call void @llvm.lifetime.start.p0(i64 8, ptr %7) #8
  %30 = load ptr, ptr %4, align 8, !tbaa !4
  %31 = load i32, ptr %6, align 4, !tbaa !12
  %32 = call ptr @ctype_get(ptr noundef %30, i32 noundef %31)
  store ptr %32, ptr %7, align 8, !tbaa !14
  %33 = load ptr, ptr %7, align 8, !tbaa !14
  %34 = getelementptr inbounds nuw %struct.CType, ptr %33, i32 0, i32 0
  %35 = load i32, ptr %34, align 8, !tbaa !16
  %36 = and i32 %35, -67108864
  %37 = icmp eq i32 %36, 805306368
  br i1 %37, label %38, label %47

38:                                               ; preds = %21
  %39 = load ptr, ptr %4, align 8, !tbaa !4
  %40 = load ptr, ptr %7, align 8, !tbaa !14
  %41 = getelementptr inbounds nuw %struct.CType, ptr %40, i32 0, i32 0
  %42 = load i32, ptr %41, align 8, !tbaa !16
  %43 = and i32 %42, 65535
  %44 = or i32 196608, %43
  %45 = add i32 536870912, %44
  %46 = call i32 @lj_ctype_intern(ptr noundef %39, i32 noundef %45, i32 noundef 8)
  store i32 %46, ptr %3, align 4
  store i32 1, ptr %8, align 4
  br label %80

47:                                               ; preds = %21
  %48 = load ptr, ptr %7, align 8, !tbaa !14
  %49 = getelementptr inbounds nuw %struct.CType, ptr %48, i32 0, i32 0
  %50 = load i32, ptr %49, align 8, !tbaa !16
  %51 = lshr i32 %50, 28
  %52 = icmp eq i32 %51, 1
  br i1 %52, label %59, label %53

53:                                               ; preds = %47
  %54 = load ptr, ptr %7, align 8, !tbaa !14
  %55 = getelementptr inbounds nuw %struct.CType, ptr %54, i32 0, i32 0
  %56 = load i32, ptr %55, align 8, !tbaa !16
  %57 = lshr i32 %56, 28
  %58 = icmp eq i32 %57, 6
  br i1 %58, label %59, label %65

59:                                               ; preds = %53, %47
  %60 = load ptr, ptr %4, align 8, !tbaa !4
  %61 = load i32, ptr %6, align 4, !tbaa !12
  %62 = or i32 196608, %61
  %63 = add i32 536870912, %62
  %64 = call i32 @lj_ctype_intern(ptr noundef %60, i32 noundef %63, i32 noundef 8)
  store i32 %64, ptr %3, align 4
  store i32 1, ptr %8, align 4
  br label %80

65:                                               ; preds = %53
  %66 = load ptr, ptr %7, align 8, !tbaa !14
  %67 = getelementptr inbounds nuw %struct.CType, ptr %66, i32 0, i32 0
  %68 = load i32, ptr %67, align 8, !tbaa !16
  %69 = and i32 %68, -201326592
  %70 = icmp eq i32 %69, 67108864
  br i1 %70, label %71, label %78

71:                                               ; preds = %65
  %72 = load ptr, ptr %7, align 8, !tbaa !14
  %73 = getelementptr inbounds nuw %struct.CType, ptr %72, i32 0, i32 1
  %74 = load i32, ptr %73, align 4, !tbaa !21
  %75 = zext i32 %74 to i64
  %76 = icmp eq i64 %75, 4
  br i1 %76, label %77, label %78

77:                                               ; preds = %71
  store i32 14, ptr %3, align 4
  store i32 1, ptr %8, align 4
  br label %80

78:                                               ; preds = %71, %65
  %79 = load i32, ptr %6, align 4, !tbaa !12
  store i32 %79, ptr %3, align 4
  store i32 1, ptr %8, align 4
  br label %80

80:                                               ; preds = %78, %77, %59, %38
  call void @llvm.lifetime.end.p0(i64 8, ptr %7) #8
  call void @llvm.lifetime.end.p0(i64 4, ptr %6) #8
  br label %102

81:                                               ; preds = %15
  %82 = load ptr, ptr %5, align 8, !tbaa !9
  %83 = load i64, ptr %82, align 8, !tbaa !11
  %84 = ashr i64 %83, 47
  %85 = trunc i64 %84 to i32
  %86 = icmp eq i32 %85, -5
  br i1 %86, label %87, label %88

87:                                               ; preds = %81
  store i32 19, ptr %3, align 4
  br label %102

88:                                               ; preds = %81
  %89 = load ptr, ptr %5, align 8, !tbaa !9
  %90 = load i64, ptr %89, align 8, !tbaa !11
  %91 = ashr i64 %90, 47
  %92 = trunc i64 %91 to i32
  %93 = icmp eq i32 %92, -2
  br i1 %93, label %100, label %94

94:                                               ; preds = %88
  %95 = load ptr, ptr %5, align 8, !tbaa !9
  %96 = load i64, ptr %95, align 8, !tbaa !11
  %97 = ashr i64 %96, 47
  %98 = trunc i64 %97 to i32
  %99 = icmp eq i32 %98, -3
  br i1 %99, label %100, label %101

100:                                              ; preds = %94, %88
  store i32 3, ptr %3, align 4
  br label %102

101:                                              ; preds = %94
  store i32 17, ptr %3, align 4
  br label %102

102:                                              ; preds = %101, %100, %87, %80, %14
  %103 = load i32, ptr %3, align 4
  ret i32 %103
}