; Function Attrs: nounwind uwtable
define hidden i32 @lj_ccall_ctid_vararg(ptr noundef %0, ptr noundef readonly captures(none) %1) local_unnamed_addr #0 {
  %3 = load i64, ptr %1, align 8, !tbaa !4
  %4 = ashr i64 %3, 47
  %5 = icmp ult i64 %4, -13
  br i1 %5, label %38, label %6

6:                                                ; preds = %2
  switch i64 %4, label %37 [
    i64 -11, label %7
    i64 -5, label %38
    i64 -2, label %36
    i64 -3, label %36
  ]

7:                                                ; preds = %6
  %8 = and i64 %3, 140737488355327
  %9 = inttoptr i64 %8 to ptr
  %10 = getelementptr inbounds nuw i8, ptr %9, i64 10
  %11 = load i16, ptr %10, align 2, !tbaa !4
  %12 = zext i16 %11 to i32
  %13 = load ptr, ptr %0, align 8, !tbaa !7
  %14 = zext i16 %11 to i64
  %15 = getelementptr inbounds nuw %struct.CType, ptr %13, i64 %14
  %16 = load i32, ptr %15, align 8, !tbaa !18
  %17 = and i32 %16, -67108864
  %18 = icmp eq i32 %17, 805306368
  br i1 %18, label %19, label %23

19:                                               ; preds = %7
  %20 = and i32 %16, 65535
  %21 = or disjoint i32 %20, 537067520
  %22 = tail call i32 @lj_ctype_intern(ptr noundef nonnull %0, i32 noundef %21, i32 noundef 8) #7
  br label %38

23:                                               ; preds = %7
  %24 = lshr i32 %16, 28
  switch i32 %24, label %28 [
    i32 1, label %25
    i32 6, label %25
  ]

25:                                               ; preds = %23, %23
  %26 = or disjoint i32 %12, 537067520
  %27 = tail call i32 @lj_ctype_intern(ptr noundef nonnull %0, i32 noundef %26, i32 noundef 8) #7
  br label %38

28:                                               ; preds = %23
  %29 = and i32 %16, -201326592
  %30 = icmp eq i32 %29, 67108864
  br i1 %30, label %31, label %35

31:                                               ; preds = %28
  %32 = getelementptr inbounds nuw i8, ptr %15, i64 4
  %33 = load i32, ptr %32, align 4, !tbaa !23
  %34 = icmp eq i32 %33, 4
  br i1 %34, label %38, label %35

35:                                               ; preds = %31, %28
  br label %38

36:                                               ; preds = %6, %6
  br label %38

37:                                               ; preds = %6
  br label %38

38:                                               ; preds = %6, %19, %25, %35, %31, %2, %37, %36
  %.0 = phi i32 [ 3, %36 ], [ 17, %37 ], [ 14, %2 ], [ %22, %19 ], [ %27, %25 ], [ %12, %35 ], [ 14, %31 ], [ 19, %6 ]
  ret i32 %.0
}